	.file	"shuffle_server.c"
	.text
.Ltext0:
	.section	.rodata.str1.1,"aMS",@progbits,1
.LC0:
	.string	"fcntl error."
.LC1:
	.string	"fcntl set error."
	.text
	.p2align 4,,15
	.globl	open_listen
	.type	open_listen, @function
open_listen:
.LFB77:
	.file 1 "shuffle_server.c"
	.loc 1 80 0
	.cfi_startproc
.LVL0:
	pushq	%rbp
	.cfi_def_cfa_offset 16
	.cfi_offset 6, -16
	pushq	%rbx
	.cfi_def_cfa_offset 24
	.cfi_offset 3, -24
	.loc 1 86 0
	xorl	%edx, %edx
	.loc 1 80 0
	movl	%edi, %ebp
	.loc 1 86 0
	movl	$1, %esi
	movl	$2, %edi
.LVL1:
	.loc 1 80 0
	subq	$56, %rsp
	.cfi_def_cfa_offset 80
	.loc 1 80 0
	movq	%fs:40, %rax
	movq	%rax, 40(%rsp)
	xorl	%eax, %eax
	.loc 1 81 0
	movl	$1, 12(%rsp)
.LVL2:
	.loc 1 86 0
	call	socket@PLT
.LVL3:
	testl	%eax, %eax
	js	.L4
	.loc 1 90 0
	leaq	12(%rsp), %rcx
	movl	$4, %r8d
	movl	$2, %edx
	movl	$1, %esi
	movl	%eax, %edi
	movl	%eax, %ebx
	call	setsockopt@PLT
.LVL4:
	testl	%eax, %eax
	js	.L4
	.loc 1 95 0
	xorl	%eax, %eax
	movl	$3, %esi
	movl	%ebx, %edi
	call	fcntl@PLT
.LVL5:
	.loc 1 96 0
	testl	%eax, %eax
	js	.L11
.LVL6:
	.loc 1 100 0
	orb	$8, %ah
.LVL7:
	.loc 1 101 0
	movl	$4, %esi
	movl	%ebx, %edi
	.loc 1 100 0
	movl	%eax, %edx
	.loc 1 101 0
	xorl	%eax, %eax
	call	fcntl@PLT
.LVL8:
	testl	%eax, %eax
	js	.L12
.LVL9:
.LBB54:
.LBB55:
	.file 2 "/usr/include/x86_64-linux-gnu/bits/strings_fortified.h"
	.loc 2 31 0
	leaq	16(%rsp), %rsi
.LVL10:
	movq	$0, 20(%rsp)
.LBE55:
.LBE54:
	.loc 1 110 0
	movl	$2, %eax
.LBB57:
	.loc 1 112 0
	movl	%ebp, %edi
.LBE57:
	.loc 1 113 0
	movl	$16, %edx
	.loc 1 110 0
	movw	%ax, 16(%rsp)
.LBB58:
	.loc 1 112 0
#APP
# 112 "shuffle_server.c" 1
	rorw $8, %di
# 0 "" 2
#NO_APP
.LBE58:
.LBB59:
.LBB56:
	.loc 2 31 0
	movl	$0, 12(%rsi)
.LVL11:
.LBE56:
.LBE59:
	.loc 1 112 0
	movw	%di, 18(%rsp)
	.loc 1 113 0
	movl	%ebx, %edi
.LVL12:
	call	bind@PLT
.LVL13:
	testl	%eax, %eax
	js	.L4
	.loc 1 117 0
	movl	$1024, %esi
	movl	%ebx, %edi
	call	listen@PLT
.LVL14:
	testl	%eax, %eax
	js	.L4
.LVL15:
.L1:
	.loc 1 120 0
	movq	40(%rsp), %rcx
	xorq	%fs:40, %rcx
	movl	%ebx, %eax
	jne	.L13
	addq	$56, %rsp
	.cfi_remember_state
	.cfi_def_cfa_offset 24
	popq	%rbx
	.cfi_def_cfa_offset 16
	popq	%rbp
	.cfi_def_cfa_offset 8
.LVL16:
	ret
.LVL17:
	.p2align 4,,10
	.p2align 3
.L4:
	.cfi_restore_state
	.loc 1 87 0
	movl	$-1, %ebx
	jmp	.L1
.LVL18:
.L11:
.LBB60:
.LBB61:
	.file 3 "/usr/include/x86_64-linux-gnu/bits/stdio2.h"
	.loc 3 104 0
	leaq	.LC0(%rip), %rsi
.LVL19:
.L9:
.LBE61:
.LBE60:
.LBB62:
.LBB63:
	movl	$1, %edi
	xorl	%eax, %eax
	call	__printf_chk@PLT
.LVL20:
.LBE63:
.LBE62:
	.loc 1 103 0
	orl	$-1, %edi
	call	exit@PLT
.LVL21:
.L13:
	.loc 1 120 0
	call	__stack_chk_fail@PLT
.LVL22:
.L12:
.LBB65:
.LBB64:
	.loc 3 104 0
	leaq	.LC1(%rip), %rsi
	jmp	.L9
.LBE64:
.LBE65:
	.cfi_endproc
.LFE77:
	.size	open_listen, .-open_listen
	.section	.rodata.str1.1
.LC2:
	.string	"epoll_ctl"
	.text
	.p2align 4,,15
	.globl	remove_client
	.type	remove_client, @function
remove_client:
.LFB80:
	.loc 1 168 0
	.cfi_startproc
.LVL23:
	pushq	%rbp
	.cfi_def_cfa_offset 16
	.cfi_offset 6, -16
	pushq	%rbx
	.cfi_def_cfa_offset 24
	.cfi_offset 3, -24
	movq	%rdi, %rbx
	.loc 1 174 0
	xorl	%ecx, %ecx
	.loc 1 168 0
	movq	%rsi, %rbp
	subq	$8, %rsp
	.cfi_def_cfa_offset 32
	.loc 1 174 0
	movl	16(%rdi), %edx
	movl	4(%rsi), %edi
.LVL24:
	movl	$2, %esi
.LVL25:
	call	epoll_ctl@PLT
.LVL26:
	testl	%eax, %eax
	js	.L17
	.loc 1 177 0
	movl	16(%rbx), %edi
	call	Close@PLT
.LVL27:
.LBB76:
.LBB77:
	.loc 1 153 0
	movq	(%rbx), %rdx
.LBE77:
.LBE76:
	.loc 1 183 0
	movq	8(%rbx), %rax
	.loc 1 186 0
	movq	%rbx, %rdi
	.loc 1 180 0
	subl	$1, 12312(%rbp)
.LVL28:
.LBB79:
.LBB78:
	.loc 1 153 0
	movq	%rdx, (%rax)
	.loc 1 154 0
	movq	(%rbx), %rdx
	movq	%rax, 8(%rdx)
.LBE78:
.LBE79:
	.loc 1 187 0
	addq	$8, %rsp
	.cfi_remember_state
	.cfi_def_cfa_offset 24
	popq	%rbx
	.cfi_def_cfa_offset 16
.LVL29:
	popq	%rbp
	.cfi_def_cfa_offset 8
.LVL30:
	.loc 1 186 0
	jmp	Free@PLT
.LVL31:
.L17:
	.cfi_restore_state
.LBB80:
.LBB81:
	.loc 1 174 0
	leaq	.LC2(%rip), %rdi
	call	perror@PLT
.LVL32:
	orl	$-1, %edi
	call	exit@PLT
.LVL33:
.LBE81:
.LBE80:
	.cfi_endproc
.LFE80:
	.size	remove_client, .-remove_client
	.section	.rodata.str1.1
.LC3:
	.string	"usage: %s <port>\n"
.LC4:
	.string	"open_listen error"
.LC5:
	.string	"epoll_create error!"
.LC6:
	.string	"epoll error\n"
.LC7:
	.string	"close connection by error"
	.section	.text.startup,"ax",@progbits
	.p2align 4,,15
	.globl	main
	.type	main, @function
main:
.LFB85:
	.loc 1 360 0
	.cfi_startproc
.LVL34:
	pushq	%r15
	.cfi_def_cfa_offset 16
	.cfi_offset 15, -16
	pushq	%r14
	.cfi_def_cfa_offset 24
	.cfi_offset 14, -24
	pushq	%r13
	.cfi_def_cfa_offset 32
	.cfi_offset 13, -32
	pushq	%r12
	.cfi_def_cfa_offset 40
	.cfi_offset 12, -40
	pushq	%rbp
	.cfi_def_cfa_offset 48
	.cfi_offset 6, -48
	pushq	%rbx
	.cfi_def_cfa_offset 56
	.cfi_offset 3, -56
	subq	$12424, %rsp
	.cfi_def_cfa_offset 12480
	.loc 1 360 0
	movq	%fs:40, %rax
	movq	%rax, 12408(%rsp)
	xorl	%eax, %eax
	.loc 1 369 0
	cmpl	$2, %edi
	je	.L19
.LVL35:
.LBB116:
.LBB117:
	.loc 3 97 0
	movq	(%rsi), %rcx
	movq	stderr(%rip), %rdi
.LVL36:
	leaq	.LC3(%rip), %rdx
	movl	$1, %esi
.LVL37:
	call	__fprintf_chk@PLT
.LVL38:
.LBE117:
.LBE116:
	.loc 1 371 0
	xorl	%edi, %edi
	call	exit@PLT
.LVL39:
.L19:
.LBB118:
.LBB119:
	.file 4 "/usr/include/stdlib.h"
	.loc 4 363 0
	movq	8(%rsi), %rdi
.LVL40:
	movl	$10, %edx
	xorl	%esi, %esi
.LVL41:
	call	strtol@PLT
.LVL42:
.LBE119:
.LBE118:
	.loc 1 375 0
	movl	%eax, %edi
	call	open_listen
.LVL43:
	.loc 1 376 0
	testl	%eax, %eax
	.loc 1 375 0
	movl	%eax, %r12d
.LVL44:
	.loc 1 376 0
	js	.L42
.LVL45:
.L20:
.LBB120:
.LBB121:
	.loc 1 301 0
	movl	$168, %edi
	.loc 1 298 0
	movl	$0, 12392(%rsp)
	.loc 1 301 0
	call	Malloc@PLT
.LVL46:
	.loc 1 307 0
	xorl	%edi, %edi
	.loc 1 301 0
	movq	%rax, 12384(%rsp)
	.loc 1 303 0
	movq	%rax, (%rax)
	.loc 1 302 0
	movq	%rax, 8(%rax)
	.loc 1 306 0
	movl	%r12d, 80(%rsp)
	.loc 1 307 0
	call	epoll_create1@PLT
.LVL47:
	.loc 1 308 0
	testl	%eax, %eax
	.loc 1 307 0
	movl	%eax, 84(%rsp)
	.loc 1 308 0
	js	.L43
	.loc 1 312 0
	leaq	80(%rsp), %rbp
.LVL48:
	.loc 1 315 0
	leaq	40(%rsp), %rcx
	movl	%r12d, %edx
	movl	$1, %esi
	movl	%eax, %edi
	.loc 1 314 0
	movl	$1, 40(%rsp)
	.loc 1 312 0
	movq	%rbp, 44(%rsp)
	.loc 1 313 0
	movl	%r12d, 44(%rsp)
	.loc 1 315 0
	call	epoll_ctl@PLT
.LVL49:
	testl	%eax, %eax
	js	.L32
.LVL50:
	leaq	32(%rsp), %rax
	movq	%rax, 16(%rsp)
	leaq	64(%rsp), %rax
	movq	%rax, 8(%rsp)
.LBE121:
.LBE120:
.LBB125:
.LBB126:
	.loc 1 267 0
	leaq	36(%rsp), %rax
	movq	%rax, 24(%rsp)
	.p2align 4,,10
	.p2align 3
.L37:
.LBE126:
.LBE125:
	.loc 1 392 0
	movl	84(%rsp), %edi
	leaq	8(%rbp), %rsi
	movl	$-1, %ecx
	movl	$1024, %edx
	call	epoll_wait@PLT
.LVL51:
	.loc 1 393 0
	testl	%eax, %eax
	.loc 1 392 0
	movl	%eax, 12376(%rsp)
.LVL52:
	.loc 1 393 0
	jle	.L37
	leaq	12(%rbp), %rbx
	xorl	%r13d, %r13d
.LBB142:
.LBB139:
.LBB127:
.LBB128:
	.loc 1 218 0
	leaq	52(%rsp), %r14
	jmp	.L36
.LVL53:
	.p2align 4,,10
	.p2align 3
.L24:
.LBE128:
.LBE127:
.LBE139:
.LBE142:
	.loc 1 403 0
	testb	$1, %al
	je	.L25
	.loc 1 405 0
	cmpl	%r12d, (%rbx)
	je	.L44
	.loc 1 409 0
	movq	(%rbx), %r15
.LVL54:
.LBB143:
.LBB144:
.LBB145:
.LBB146:
	.file 5 "/usr/include/x86_64-linux-gnu/bits/socket2.h"
	.loc 5 44 0
	leaq	read_buf(%rip), %rsi
	xorl	%ecx, %ecx
	movl	$33554432, %edx
	movl	16(%r15), %edi
	call	recv@PLT
.LVL55:
.LBE146:
.LBE145:
	.loc 1 339 0
	cmpl	$0, %eax
	jle	.L33
	.loc 1 341 0
	cltq
	addq	%rax, 152(%r15)
.LVL56:
	.p2align 4,,10
	.p2align 3
.L25:
.LBE144:
.LBE143:
	.loc 1 393 0 discriminator 2
	addl	$1, %r13d
.LVL57:
	addq	$12, %rbx
	cmpl	%r13d, 12376(%rsp)
	jle	.L37
.LVL58:
.L36:
	.loc 1 394 0
	movl	-4(%rbx), %eax
	testb	$24, %al
	je	.L24
.LVL59:
.LBB150:
.LBB151:
	.loc 3 97 0
	movq	stderr(%rip), %rcx
	leaq	.LC6(%rip), %rdi
	movl	$12, %edx
	movl	$1, %esi
	call	fwrite@PLT
.LVL60:
.LBE151:
.LBE150:
	.loc 1 398 0
	movl	(%rbx), %edi
	call	close@PLT
.LVL61:
	.loc 1 399 0
	jmp	.L25
	.p2align 4,,10
	.p2align 3
.L44:
.LVL62:
.LBB152:
.LBB140:
	.loc 1 247 0
	movq	16(%rsp), %rdx
	movq	8(%rsp), %rsi
	movl	%r12d, %edi
	.loc 1 239 0
	movl	$16, 32(%rsp)
.LVL63:
	.loc 1 244 0
	movl	$1, 36(%rsp)
	.loc 1 247 0
	call	Accept@PLT
.LVL64:
	.loc 1 249 0
	cmpl	$-1, %eax
	.loc 1 247 0
	movl	%eax, %r15d
.LVL65:
	.loc 1 249 0
	jne	.L28
	call	__errno_location@PLT
.LVL66:
	cmpl	$11, (%rax)
	je	.L25
.L28:
	.loc 1 255 0
	xorl	%eax, %eax
	movl	$3, %esi
	movl	%r15d, %edi
	call	fcntl@PLT
.LVL67:
	.loc 1 256 0
	testl	%eax, %eax
	js	.L45
.LVL68:
	.loc 1 260 0
	orb	$8, %ah
.LVL69:
	.loc 1 261 0
	movl	$4, %esi
	movl	%r15d, %edi
	.loc 1 260 0
	movl	%eax, %edx
	.loc 1 261 0
	xorl	%eax, %eax
	call	fcntl@PLT
.LVL70:
	testl	%eax, %eax
	js	.L46
	.loc 1 267 0
	movq	24(%rsp), %rcx
	movl	$4, %r8d
	movl	$1, %edx
	movl	$6, %esi
	movl	%r15d, %edi
	call	setsockopt@PLT
.LVL71:
.LBB134:
.LBB133:
	.loc 1 205 0
	movl	$168, %edi
	call	Malloc@PLT
.LVL72:
	.loc 1 218 0
	movl	84(%rsp), %edi
	.loc 1 205 0
	movq	%rax, %r8
.LVL73:
	.loc 1 207 0
	movl	%r15d, 16(%rax)
	.loc 1 208 0
	movq	$0, 152(%rax)
	movl	$4294967295, %eax
.LVL74:
	.loc 1 218 0
	movq	%r14, %rcx
	.loc 1 208 0
	movq	%rax, 160(%r8)
	.loc 1 218 0
	movl	%r15d, %edx
	movl	$1, %esi
	.loc 1 216 0
	movq	%r8, 56(%rsp)
	movq	%r8, (%rsp)
	.loc 1 217 0
	movl	$1, 52(%rsp)
	.loc 1 218 0
	call	epoll_ctl@PLT
.LVL75:
	testl	%eax, %eax
	js	.L32
	.loc 1 223 0
	movq	12384(%rsp), %rax
.LVL76:
.LBB129:
.LBB130:
	.loc 1 137 0
	movq	(%rsp), %r8
.LBE130:
.LBE129:
	.loc 1 221 0
	addl	$1, 12392(%rsp)
.LBB132:
.LBB131:
	.loc 1 137 0
	movq	8(%rax), %rdx
	.loc 1 138 0
	movq	%rax, (%r8)
	.loc 1 137 0
	movq	%rdx, 8(%r8)
	.loc 1 139 0
	movq	8(%rax), %rdx
	movq	%r8, (%rdx)
	.loc 1 140 0
	movq	%r8, 8(%rax)
.LVL77:
	jmp	.L25
.LVL78:
	.p2align 4,,10
	.p2align 3
.L33:
.LBE131:
.LBE132:
.LBE133:
.LBE134:
.LBE140:
.LBE152:
.LBB153:
.LBB149:
	.loc 1 347 0
	je	.L34
	.loc 1 349 0
	call	__errno_location@PLT
.LVL79:
	cmpl	$11, (%rax)
	je	.L25
.LVL80:
.LBB147:
.LBB148:
	.loc 3 104 0
	leaq	.LC7(%rip), %rdi
	call	puts@PLT
.LVL81:
.LBE148:
.LBE147:
	.loc 1 351 0
	movq	%rbp, %rsi
	movq	%r15, %rdi
	call	remove_client
.LVL82:
	jmp	.L25
.LVL83:
	.p2align 4,,10
	.p2align 3
.L34:
	.loc 1 356 0
	movq	%rbp, %rsi
	movq	%r15, %rdi
	call	remove_client
.LVL84:
	jmp	.L25
.LVL85:
.L42:
.LBE149:
.LBE153:
	.loc 1 377 0
	leaq	.LC4(%rip), %rdi
	call	unix_error@PLT
.LVL86:
	jmp	.L20
.LVL87:
.L46:
.LBB154:
.LBB141:
.LBB135:
.LBB136:
	.loc 3 104 0
	leaq	.LC1(%rip), %rsi
.LVL88:
.L41:
	movl	$1, %edi
	xorl	%eax, %eax
	call	__printf_chk@PLT
.LVL89:
.LBE136:
.LBE135:
	.loc 1 263 0
	orl	$-1, %edi
	call	exit@PLT
.LVL90:
.L45:
.LBB137:
.LBB138:
	.loc 3 104 0
	leaq	.LC0(%rip), %rsi
	jmp	.L41
.LVL91:
.L32:
.LBE138:
.LBE137:
.LBE141:
.LBE154:
.LBB155:
.LBB124:
	.loc 1 315 0
	leaq	.LC2(%rip), %rdi
	call	perror@PLT
.LVL92:
	orl	$-1, %edi
	call	exit@PLT
.LVL93:
.L43:
.LBB122:
.LBB123:
	.loc 3 104 0
	leaq	.LC5(%rip), %rdi
	call	puts@PLT
.LVL94:
.LBE123:
.LBE122:
	.loc 1 310 0
	movl	$1, %edi
	call	exit@PLT
.LVL95:
.LBE124:
.LBE155:
	.cfi_endproc
.LFE85:
	.size	main, .-main
	.local	read_buf
	.comm	read_buf,33554432,32
	.text
.Letext0:
	.file 6 "/usr/lib/gcc/x86_64-linux-gnu/7/include/stddef.h"
	.file 7 "/usr/include/x86_64-linux-gnu/bits/types.h"
	.file 8 "/usr/include/time.h"
	.file 9 "/usr/include/x86_64-linux-gnu/sys/types.h"
	.file 10 "/usr/include/x86_64-linux-gnu/bits/stdint-uintn.h"
	.file 11 "/usr/include/math.h"
	.file 12 "/usr/include/x86_64-linux-gnu/sys/time.h"
	.file 13 "/usr/include/x86_64-linux-gnu/sys/epoll.h"
	.file 14 "/usr/include/x86_64-linux-gnu/bits/socket.h"
	.file 15 "/usr/include/x86_64-linux-gnu/bits/socket_type.h"
	.file 16 "/usr/include/x86_64-linux-gnu/bits/sockaddr.h"
	.file 17 "/usr/include/x86_64-linux-gnu/bits/libio.h"
	.file 18 "/usr/include/x86_64-linux-gnu/bits/types/FILE.h"
	.file 19 "/usr/include/stdio.h"
	.file 20 "/usr/include/x86_64-linux-gnu/bits/sys_errlist.h"
	.file 21 "/usr/include/unistd.h"
	.file 22 "/usr/include/x86_64-linux-gnu/bits/getopt_core.h"
	.file 23 "/usr/include/signal.h"
	.file 24 "/usr/include/netinet/in.h"
	.file 25 "/usr/include/netdb.h"
	.file 26 "csapp.h"
	.file 27 "/usr/include/x86_64-linux-gnu/bits/byteswap.h"
	.file 28 "/usr/include/errno.h"
	.file 29 "/usr/include/fcntl.h"
	.file 30 "/usr/include/x86_64-linux-gnu/sys/socket.h"
	.file 31 "<built-in>"
	.section	.note.GNU-stack,"",@progbits
